target datalayout = "e-m:e-p270:32:32-p271:32:32-p272:64:64-i64:64-i128:128-f80:128-n8:16:32:64-S128"
target triple = "x86_64-pc-linux-gnu"

%struct.imap = type { i32, i32, i32, i32, i32, i32, ptr, ptr, %struct.imap_buffer }
%struct.imap_buffer = type { %struct.imap_socket, i32, i32, [1024 x i8] }
%struct.imap_socket = type { [2 x i32], ptr }

@sane_ctype = external constant [256 x i8], align 16
@cap_list = internal global [6 x ptr] [ptr @.str.93, ptr @.str.94, ptr @.str.95, ptr @.str.96, ptr @.str.52, ptr @.str.97], align 16

; Function Attrs: nounwind uwtable
define internal ptr @next_arg(ptr noundef %0) #0 {
  %2 = alloca ptr, align 8
  %3 = alloca ptr, align 8
  %4 = alloca ptr, align 8
  %5 = alloca i32, align 4
  store ptr %0, ptr %3, align 8, !tbaa !8
  call void @llvm.lifetime.start.p0(i64 8, ptr %4) #11
  %6 = load ptr, ptr %3, align 8, !tbaa !8
  %7 = icmp ne ptr %6, null
  br i1 %7, label %8, label %12

8:                                                ; preds = %1
  %9 = load ptr, ptr %3, align 8, !tbaa !8
  %10 = load ptr, ptr %9, align 8, !tbaa !29
  %11 = icmp ne ptr %10, null
  br i1 %11, label %13, label %12

12:                                               ; preds = %8, %1
  store ptr null, ptr %2, align 8
  store i32 1, ptr %5, align 4
  br label %101

13:                                               ; preds = %8
  br label %14

14:                                               ; preds = %24, %13
  %15 = load ptr, ptr %3, align 8, !tbaa !8
  %16 = load ptr, ptr %15, align 8, !tbaa !29
  %17 = load i8, ptr %16, align 1, !tbaa !39
  %18 = zext i8 %17 to i64
  %19 = getelementptr inbounds nuw [256 x i8], ptr @sane_ctype, i64 0, i64 %18
  %20 = load i8, ptr %19, align 1, !tbaa !39
  %21 = zext i8 %20 to i32
  %22 = and i32 %21, 1
  %23 = icmp ne i32 %22, 0
  br i1 %23, label %24, label %28

24:                                               ; preds = %14
  %25 = load ptr, ptr %3, align 8, !tbaa !8
  %26 = load ptr, ptr %25, align 8, !tbaa !29
  %27 = getelementptr inbounds nuw i8, ptr %26, i32 1
  store ptr %27, ptr %25, align 8, !tbaa !29
  br label %14, !llvm.loop !106

28:                                               ; preds = %14
  %29 = load ptr, ptr %3, align 8, !tbaa !8
  %30 = load ptr, ptr %29, align 8, !tbaa !29
  %31 = load i8, ptr %30, align 1, !tbaa !39
  %32 = icmp ne i8 %31, 0
  br i1 %32, label %35, label %33

33:                                               ; preds = %28
  %34 = load ptr, ptr %3, align 8, !tbaa !8
  store ptr null, ptr %34, align 8, !tbaa !29
  store ptr null, ptr %2, align 8
  store i32 1, ptr %5, align 4
  br label %101

35:                                               ; preds = %28
  %36 = load ptr, ptr %3, align 8, !tbaa !8
  %37 = load ptr, ptr %36, align 8, !tbaa !29
  %38 = load i8, ptr %37, align 1, !tbaa !39
  %39 = sext i8 %38 to i32
  %40 = icmp eq i32 %39, 34
  br i1 %40, label %41, label %51

41:                                               ; preds = %35
  %42 = load ptr, ptr %3, align 8, !tbaa !8
  %43 = load ptr, ptr %42, align 8, !tbaa !29
  %44 = getelementptr inbounds nuw i8, ptr %43, i32 1
  store ptr %44, ptr %42, align 8, !tbaa !29
  %45 = load ptr, ptr %3, align 8, !tbaa !8
  %46 = load ptr, ptr %45, align 8, !tbaa !29
  store ptr %46, ptr %4, align 8, !tbaa !29
  %47 = load ptr, ptr %3, align 8, !tbaa !8
  %48 = load ptr, ptr %47, align 8, !tbaa !29
  %49 = call ptr @strchr(ptr noundef %48, i32 noundef 34) #13
  %50 = load ptr, ptr %3, align 8, !tbaa !8
  store ptr %49, ptr %50, align 8, !tbaa !29
  br label %78

51:                                               ; preds = %35
  %52 = load ptr, ptr %3, align 8, !tbaa !8
  %53 = load ptr, ptr %52, align 8, !tbaa !29
  store ptr %53, ptr %4, align 8, !tbaa !29
  br label %54

54:                                               ; preds = %73, %51
  %55 = load ptr, ptr %3, align 8, !tbaa !8
  %56 = load ptr, ptr %55, align 8, !tbaa !29
  %57 = load i8, ptr %56, align 1, !tbaa !39
  %58 = sext i8 %57 to i32
  %59 = icmp ne i32 %58, 0
  br i1 %59, label %60, label %71

60:                                               ; preds = %54
  %61 = load ptr, ptr %3, align 8, !tbaa !8
  %62 = load ptr, ptr %61, align 8, !tbaa !29
  %63 = load i8, ptr %62, align 1, !tbaa !39
  %64 = zext i8 %63 to i64
  %65 = getelementptr inbounds nuw [256 x i8], ptr @sane_ctype, i64 0, i64 %64
  %66 = load i8, ptr %65, align 1, !tbaa !39
  %67 = zext i8 %66 to i32
  %68 = and i32 %67, 1
  %69 = icmp ne i32 %68, 0
  %70 = xor i1 %69, true
  br label %71

71:                                               ; preds = %60, %54
  %72 = phi i1 [ false, %54 ], [ %70, %60 ]
  br i1 %72, label %73, label %77

73:                                               ; preds = %71
  %74 = load ptr, ptr %3, align 8, !tbaa !8
  %75 = load ptr, ptr %74, align 8, !tbaa !29
  %76 = getelementptr inbounds nuw i8, ptr %75, i32 1
  store ptr %76, ptr %74, align 8, !tbaa !29
  br label %54, !llvm.loop !107

77:                                               ; preds = %71
  br label %78

78:                                               ; preds = %77, %41
  %79 = load ptr, ptr %3, align 8, !tbaa !8
  %80 = load ptr, ptr %79, align 8, !tbaa !29
  %81 = icmp ne ptr %80, null
  br i1 %81, label %82, label %99

82:                                               ; preds = %78
  %83 = load ptr, ptr %3, align 8, !tbaa !8
  %84 = load ptr, ptr %83, align 8, !tbaa !29
  %85 = load i8, ptr %84, align 1, !tbaa !39
  %86 = icmp ne i8 %85, 0
  br i1 %86, label %87, label %91

87:                                               ; preds = %82
  %88 = load ptr, ptr %3, align 8, !tbaa !8
  %89 = load ptr, ptr %88, align 8, !tbaa !29
  %90 = getelementptr inbounds nuw i8, ptr %89, i32 1
  store ptr %90, ptr %88, align 8, !tbaa !29
  store i8 0, ptr %89, align 1, !tbaa !39
  br label %91

91:                                               ; preds = %87, %82
  %92 = load ptr, ptr %3, align 8, !tbaa !8
  %93 = load ptr, ptr %92, align 8, !tbaa !29
  %94 = load i8, ptr %93, align 1, !tbaa !39
  %95 = icmp ne i8 %94, 0
  br i1 %95, label %98, label %96

96:                                               ; preds = %91
  %97 = load ptr, ptr %3, align 8, !tbaa !8
  store ptr null, ptr %97, align 8, !tbaa !29
  br label %98

98:                                               ; preds = %96, %91
  br label %99

99:                                               ; preds = %98, %78
  %100 = load ptr, ptr %4, align 8, !tbaa !29
  store ptr %100, ptr %2, align 8
  store i32 1, ptr %5, align 4
  br label %101

101:                                              ; preds = %99, %33, %12
  call void @llvm.lifetime.end.p0(i64 8, ptr %4) #11
  %102 = load ptr, ptr %2, align 8
  ret ptr %102
}

; Function Attrs: nounwind uwtable
define internal void @parse_capability(ptr noundef %0, ptr noundef %1) #0 {
  %3 = alloca ptr, align 8
  %4 = alloca ptr, align 8
  %5 = alloca ptr, align 8
  %6 = alloca i32, align 4
  store ptr %0, ptr %3, align 8, !tbaa !57
  store ptr %1, ptr %4, align 8, !tbaa !29
  call void @llvm.lifetime.start.p0(i64 8, ptr %5) #11
  call void @llvm.lifetime.start.p0(i64 4, ptr %6) #11
  %7 = load ptr, ptr %3, align 8, !tbaa !57
  %8 = getelementptr inbounds nuw %struct.imap, ptr %7, i32 0, i32 1
  store i32 -2147483648, ptr %8, align 4, !tbaa !81
  br label %9

9:                                                ; preds = %36, %2
  %10 = call ptr @next_arg(ptr noundef %4)
  store ptr %10, ptr %5, align 8, !tbaa !29
  %11 = icmp ne ptr %10, null
  br i1 %11, label %12, label %37

12:                                               ; preds = %9
  store i32 0, ptr %6, align 4, !tbaa !4
  br label %13

13:                                               ; preds = %33, %12
  %14 = load i32, ptr %6, align 4, !tbaa !4
  %15 = zext i32 %14 to i64
  %16 = icmp ult i64 %15, 6
  br i1 %16, label %17, label %36

17:                                               ; preds = %13
  %18 = load i32, ptr %6, align 4, !tbaa !4
  %19 = zext i32 %18 to i64
  %20 = getelementptr inbounds nuw [6 x ptr], ptr @cap_list, i64 0, i64 %19
  %21 = load ptr, ptr %20, align 8, !tbaa !29
  %22 = load ptr, ptr %5, align 8, !tbaa !29
  %23 = call i32 @strcmp(ptr noundef %21, ptr noundef %22) #13
  %24 = icmp ne i32 %23, 0
  br i1 %24, label %32, label %25

25:                                               ; preds = %17
  %26 = load i32, ptr %6, align 4, !tbaa !4
  %27 = shl i32 1, %26
  %28 = load ptr, ptr %3, align 8, !tbaa !57
  %29 = getelementptr inbounds nuw %struct.imap, ptr %28, i32 0, i32 1
  %30 = load i32, ptr %29, align 4, !tbaa !81
  %31 = or i32 %30, %27
  store i32 %31, ptr %29, align 4, !tbaa !81
  br label %32

32:                                               ; preds = %25, %17
  br label %33

33:                                               ; preds = %32
  %34 = load i32, ptr %6, align 4, !tbaa !4
  %35 = add i32 %34, 1
  store i32 %35, ptr %6, align 4, !tbaa !4
  br label %13, !llvm.loop !134

36:                                               ; preds = %13
  br label %9, !llvm.loop !135

37:                                               ; preds = %9
  %38 = load ptr, ptr %3, align 8, !tbaa !57
  %39 = getelementptr inbounds nuw %struct.imap, ptr %38, i32 0, i32 1
  %40 = load i32, ptr %39, align 4, !tbaa !81
  %41 = load ptr, ptr %3, align 8, !tbaa !57
  %42 = getelementptr inbounds nuw %struct.imap, ptr %41, i32 0, i32 2
  store i32 %40, ptr %42, align 8, !tbaa !92
  call void @llvm.lifetime.end.p0(i64 4, ptr %6) #11
  call void @llvm.lifetime.end.p0(i64 8, ptr %5) #11
  ret void
}