; Function Attrs: nofree nounwind memory(readwrite, inaccessiblemem: none) uwtable
define internal fastcc void @parse_capability(ptr noundef captures(none) initializes((4, 8)) %0, ptr noundef %1) unnamed_addr #11 {
  %3 = getelementptr inbounds nuw i8, ptr %0, i64 4
  store i32 -2147483648, ptr %3, align 4, !tbaa !75
  %.not.i18 = icmp eq ptr %1, null
  br i1 %.not.i18, label %._crit_edge, label %.preheader40.i

.loopexit:                                        ; preds = %39
  %.not.i = icmp eq ptr %.1, null
  br i1 %.not.i, label %._crit_edge.loopexit, label %.preheader40.i, !llvm.loop !105

.preheader40.i:                                   ; preds = %2, %.loopexit
  %.01119 = phi ptr [ %.1, %.loopexit ], [ %1, %2 ]
  %4 = load i8, ptr %.01119, align 1, !tbaa !26
  %5 = zext i8 %4 to i64
  %6 = getelementptr inbounds nuw [256 x i8], ptr @sane_ctype, i64 0, i64 %5
  %7 = load i8, ptr %6, align 1, !tbaa !26
  %8 = and i8 %7, 1
  %.not2642.i = icmp eq i8 %8, 0
  br i1 %.not2642.i, label %._crit_edge.i, label %.lr.ph.i

.lr.ph.i:                                         ; preds = %.preheader40.i, %.lr.ph.i
  %9 = phi ptr [ %10, %.lr.ph.i ], [ %.01119, %.preheader40.i ]
  %10 = getelementptr inbounds nuw i8, ptr %9, i64 1
  %11 = load i8, ptr %10, align 1, !tbaa !26
  %12 = zext i8 %11 to i64
  %13 = getelementptr inbounds nuw [256 x i8], ptr @sane_ctype, i64 0, i64 %12
  %14 = load i8, ptr %13, align 1, !tbaa !26
  %15 = and i8 %14, 1
  %.not26.i = icmp eq i8 %15, 0
  br i1 %.not26.i, label %._crit_edge.i, label %.lr.ph.i, !llvm.loop !73

._crit_edge.i:                                    ; preds = %.lr.ph.i, %.preheader40.i
  %.promoted44.i = phi ptr [ %.01119, %.preheader40.i ], [ %10, %.lr.ph.i ]
  %16 = phi i8 [ %4, %.preheader40.i ], [ %11, %.lr.ph.i ]
  switch i8 %16, label %.lr.ph46.i [
    i8 0, label %._crit_edge.loopexit
    i8 34, label %.critedge.i
  ]

.lr.ph46.i:                                       ; preds = %._crit_edge.i, %22
  %17 = phi i8 [ %24, %22 ], [ %16, %._crit_edge.i ]
  %.pr.i = phi ptr [ %23, %22 ], [ %.promoted44.i, %._crit_edge.i ]
  %18 = zext i8 %17 to i64
  %19 = getelementptr inbounds nuw [256 x i8], ptr @sane_ctype, i64 0, i64 %18
  %20 = load i8, ptr %19, align 1, !tbaa !26
  %21 = and i8 %20, 1
  %.not29.i = icmp eq i8 %21, 0
  br i1 %.not29.i, label %22, label %.critedge.thread.i

22:                                               ; preds = %.lr.ph46.i
  %23 = getelementptr inbounds nuw i8, ptr %.pr.i, i64 1
  %24 = load i8, ptr %23, align 1, !tbaa !26
  %.not28.i = icmp eq i8 %24, 0
  br i1 %.not28.i, label %next_arg.exit, label %.lr.ph46.i, !llvm.loop !74

.critedge.i:                                      ; preds = %._crit_edge.i
  %25 = getelementptr inbounds nuw i8, ptr %.promoted44.i, i64 1
  %26 = tail call ptr @strchr(ptr noundef nonnull dereferenceable(1) %25, i32 noundef 34) #25
  %.not30.i = icmp eq ptr %26, null
  br i1 %.not30.i, label %next_arg.exit, label %.critedge.i..critedge.thread.i_crit_edge

.critedge.i..critedge.thread.i_crit_edge:         ; preds = %.critedge.i
  %.pr36.i.pre = load i8, ptr %26, align 1, !tbaa !26
  br label %.critedge.thread.i

.critedge.thread.i:                               ; preds = %.lr.ph46.i, %.critedge.i..critedge.thread.i_crit_edge
  %.pr36.i = phi i8 [ %.pr36.i.pre, %.critedge.i..critedge.thread.i_crit_edge ], [ %17, %.lr.ph46.i ]
  %.052.i = phi ptr [ %25, %.critedge.i..critedge.thread.i_crit_edge ], [ %.promoted44.i, %.lr.ph46.i ]
  %27 = phi ptr [ %26, %.critedge.i..critedge.thread.i_crit_edge ], [ %.pr.i, %.lr.ph46.i ]
  %.not31.i = icmp eq i8 %.pr36.i, 0
  br i1 %.not31.i, label %next_arg.exit, label %.thread.i

.thread.i:                                        ; preds = %.critedge.thread.i
  %28 = getelementptr inbounds nuw i8, ptr %27, i64 1
  store i8 0, ptr %27, align 1, !tbaa !26
  %.pre49.i = load i8, ptr %28, align 1, !tbaa !26
  %29 = icmp eq i8 %.pre49.i, 0
  %spec.select = select i1 %29, ptr null, ptr %28
  br label %next_arg.exit

next_arg.exit:                                    ; preds = %22, %.thread.i, %.critedge.thread.i, %.critedge.i
  %.1 = phi ptr [ null, %.critedge.i ], [ null, %.critedge.thread.i ], [ %spec.select, %.thread.i ], [ null, %22 ]
  %.022.i = phi ptr [ %25, %.critedge.i ], [ %.052.i, %.critedge.thread.i ], [ %.052.i, %.thread.i ], [ %.promoted44.i, %22 ]
  br label %30

30:                                               ; preds = %next_arg.exit, %39
  %indvars.iv = phi i64 [ 0, %next_arg.exit ], [ %indvars.iv.next, %39 ]
  %31 = getelementptr inbounds nuw [6 x ptr], ptr @cap_list, i64 0, i64 %indvars.iv
  %32 = load ptr, ptr %31, align 8, !tbaa !72
  %33 = tail call i32 @strcmp(ptr noundef nonnull dereferenceable(1) %32, ptr noundef nonnull dereferenceable(1) %.022.i) #25
  %.not10 = icmp eq i32 %33, 0
  br i1 %.not10, label %34, label %39

34:                                               ; preds = %30
  %35 = trunc nuw nsw i64 %indvars.iv to i32
  %36 = shl nuw nsw i32 1, %35
  %37 = load i32, ptr %3, align 4, !tbaa !75
  %38 = or i32 %37, %36
  store i32 %38, ptr %3, align 4, !tbaa !75
  br label %39

39:                                               ; preds = %30, %34
  %indvars.iv.next = add nuw nsw i64 %indvars.iv, 1
  %exitcond.not = icmp eq i64 %indvars.iv.next, 6
  br i1 %exitcond.not, label %.loopexit, label %30, !llvm.loop !106

._crit_edge.loopexit:                             ; preds = %.loopexit, %._crit_edge.i
  %.pre = load i32, ptr %3, align 4, !tbaa !75
  br label %._crit_edge

._crit_edge:                                      ; preds = %._crit_edge.loopexit, %2
  %40 = phi i32 [ %.pre, %._crit_edge.loopexit ], [ -2147483648, %2 ]
  %41 = getelementptr inbounds nuw i8, ptr %0, i64 8
  store i32 %40, ptr %41, align 8, !tbaa !83
  ret void
}